target datalayout = "e-m:e-p270:32:32-p271:32:32-p272:64:64-i64:64-i128:128-f80:128-n8:16:32:64-S128"
target triple = "x86_64-pc-linux-gnu"

; Function Attrs: nounwind uwtable
define internal i32 @get_fmt_score(i32 noundef %0, i32 noundef %1) #0 {
  %3 = alloca i32, align 4
  %4 = alloca i32, align 4
  %5 = alloca i32, align 4
  store i32 %0, ptr %3, align 4, !tbaa !20
  store i32 %1, ptr %4, align 4, !tbaa !20
  call void @llvm.lifetime.start.p0(i64 4, ptr %5) #11
  store i32 0, ptr %5, align 4, !tbaa !20
  %6 = load i32, ptr %3, align 4, !tbaa !20
  %7 = call i32 @av_sample_fmt_is_planar(i32 noundef %6)
  %8 = load i32, ptr %4, align 4, !tbaa !20
  %9 = call i32 @av_sample_fmt_is_planar(i32 noundef %8)
  %10 = icmp ne i32 %7, %9
  br i1 %10, label %11, label %14

11:                                               ; preds = %2
  %12 = load i32, ptr %5, align 4, !tbaa !20
  %13 = add nsw i32 %12, 1
  store i32 %13, ptr %5, align 4, !tbaa !20
  br label %14

14:                                               ; preds = %11, %2
  %15 = load i32, ptr %3, align 4, !tbaa !20
  %16 = call i32 @av_get_bytes_per_sample(i32 noundef %15)
  %17 = load i32, ptr %4, align 4, !tbaa !20
  %18 = call i32 @av_get_bytes_per_sample(i32 noundef %17)
  %19 = icmp slt i32 %16, %18
  br i1 %19, label %20, label %29

20:                                               ; preds = %14
  %21 = load i32, ptr %4, align 4, !tbaa !20
  %22 = call i32 @av_get_bytes_per_sample(i32 noundef %21)
  %23 = load i32, ptr %3, align 4, !tbaa !20
  %24 = call i32 @av_get_bytes_per_sample(i32 noundef %23)
  %25 = sub nsw i32 %22, %24
  %26 = mul nsw i32 100, %25
  %27 = load i32, ptr %5, align 4, !tbaa !20
  %28 = add nsw i32 %27, %26
  store i32 %28, ptr %5, align 4, !tbaa !20
  br label %38

29:                                               ; preds = %14
  %30 = load i32, ptr %3, align 4, !tbaa !20
  %31 = call i32 @av_get_bytes_per_sample(i32 noundef %30)
  %32 = load i32, ptr %4, align 4, !tbaa !20
  %33 = call i32 @av_get_bytes_per_sample(i32 noundef %32)
  %34 = sub nsw i32 %31, %33
  %35 = mul nsw i32 10, %34
  %36 = load i32, ptr %5, align 4, !tbaa !20
  %37 = add nsw i32 %36, %35
  store i32 %37, ptr %5, align 4, !tbaa !20
  br label %38

38:                                               ; preds = %29, %20
  %39 = load i32, ptr %3, align 4, !tbaa !20
  %40 = call i32 @av_get_packed_sample_fmt(i32 noundef %39)
  %41 = icmp eq i32 %40, 2
  br i1 %41, label %42, label %49

42:                                               ; preds = %38
  %43 = load i32, ptr %4, align 4, !tbaa !20
  %44 = call i32 @av_get_packed_sample_fmt(i32 noundef %43)
  %45 = icmp eq i32 %44, 3
  br i1 %45, label %46, label %49

46:                                               ; preds = %42
  %47 = load i32, ptr %5, align 4, !tbaa !20
  %48 = add nsw i32 %47, 20
  store i32 %48, ptr %5, align 4, !tbaa !20
  br label %49

49:                                               ; preds = %46, %42, %38
  %50 = load i32, ptr %3, align 4, !tbaa !20
  %51 = call i32 @av_get_packed_sample_fmt(i32 noundef %50)
  %52 = icmp eq i32 %51, 3
  br i1 %52, label %53, label %60

53:                                               ; preds = %49
  %54 = load i32, ptr %4, align 4, !tbaa !20
  %55 = call i32 @av_get_packed_sample_fmt(i32 noundef %54)
  %56 = icmp eq i32 %55, 2
  br i1 %56, label %57, label %60

57:                                               ; preds = %53
  %58 = load i32, ptr %5, align 4, !tbaa !20
  %59 = add nsw i32 %58, 2
  store i32 %59, ptr %5, align 4, !tbaa !20
  br label %60

60:                                               ; preds = %57, %53, %49
  %61 = load i32, ptr %5, align 4, !tbaa !20
  call void @llvm.lifetime.end.p0(i64 4, ptr %5) #11
  ret i32 %61
}