; Function Attrs: nounwind uwtable
define internal fastcc i32 @get_fmt_score(i32 noundef %0, i32 noundef %1) unnamed_addr #0 {
  %3 = tail call i32 @av_sample_fmt_is_planar(i32 noundef %0) #14
  %4 = tail call i32 @av_sample_fmt_is_planar(i32 noundef %1) #14
  %.not = icmp ne i32 %3, %4
  %spec.select = zext i1 %.not to i32
  %5 = tail call i32 @av_get_bytes_per_sample(i32 noundef %0) #14
  %6 = tail call i32 @av_get_bytes_per_sample(i32 noundef %1) #14
  %7 = icmp slt i32 %5, %6
  %. = select i1 %7, i32 %1, i32 %0
  %.24 = select i1 %7, i32 %0, i32 %1
  %.25 = select i1 %7, i32 100, i32 10
  %8 = tail call i32 @av_get_bytes_per_sample(i32 noundef %.) #14
  %9 = tail call i32 @av_get_bytes_per_sample(i32 noundef %.24) #14
  %10 = sub nsw i32 %8, %9
  %11 = mul nsw i32 %10, %.25
  %.1 = or disjoint i32 %11, %spec.select
  %12 = tail call i32 @av_get_packed_sample_fmt(i32 noundef %0) #14
  %13 = icmp eq i32 %12, 2
  br i1 %13, label %14, label %18

14:                                               ; preds = %2
  %15 = tail call i32 @av_get_packed_sample_fmt(i32 noundef %1) #14
  %16 = icmp eq i32 %15, 3
  %17 = add nsw i32 %.1, 20
  %spec.select18 = select i1 %16, i32 %17, i32 %.1
  br label %18

18:                                               ; preds = %14, %2
  %.2 = phi i32 [ %.1, %2 ], [ %spec.select18, %14 ]
  %19 = tail call i32 @av_get_packed_sample_fmt(i32 noundef %0) #14
  %20 = icmp eq i32 %19, 3
  br i1 %20, label %21, label %25

21:                                               ; preds = %18
  %22 = tail call i32 @av_get_packed_sample_fmt(i32 noundef %1) #14
  %23 = icmp eq i32 %22, 2
  %24 = add nsw i32 %.2, 2
  %spec.select19 = select i1 %23, i32 %24, i32 %.2
  br label %25

25:                                               ; preds = %21, %18
  %.3 = phi i32 [ %.2, %18 ], [ %spec.select19, %21 ]
  ret i32 %.3
}